; Function Attrs: mustprogress nofree norecurse nosync nounwind willreturn memory(argmem: read) uwtable
define noundef range(i32 0, 3) i32 @_ZNK10open_spiel7pentago12PentagoState3getEi(ptr noundef nonnull readonly align 8 captures(none) dereferenceable(93) %0, i32 noundef %1) local_unnamed_addr #6 align 2 {
  %3 = getelementptr inbounds nuw i8, ptr %0, i64 64
  %4 = load i64, ptr %3, align 8
  %5 = sext i32 %1 to i64
  %6 = getelementptr inbounds [36 x i64], ptr @_ZN10open_spiel7pentago12_GLOBAL__N_111xy_bit_maskE, i64 0, i64 %5
  %7 = load i64, ptr %6, align 8
  %8 = and i64 %7, %4
  %.not = icmp eq i64 %8, 0
  %9 = getelementptr inbounds nuw i8, ptr %0, i64 72
  %10 = load i64, ptr %9, align 8
  %11 = and i64 %10, %7
  %.not2 = icmp eq i64 %11, 0
  %12 = select i1 %.not2, i32 2, i32 1
  %13 = select i1 %.not, i32 %12, i32 0
  ret i32 %13
}